; Function Attrs: null_pointer_is_valid sspstrong uwtable
define internal i32 @dissect_h245_VideoCapability(ptr noundef %0, i32 noundef %1, ptr noundef %2, ptr noundef %3, i32 noundef %4) #1 {
  %6 = alloca i32, align 4
  %7 = getelementptr inbounds nuw i8, ptr %2, i64 16
  %8 = load ptr, ptr %7, align 8
  %9 = getelementptr inbounds nuw i8, ptr %8, i64 432
  %10 = load i32, ptr %9, align 8
  %11 = add i32 %10, 3
  store i32 %11, ptr %9, align 8
  %12 = load ptr, ptr %7, align 8
  tail call void @increment_dissection_depth(ptr noundef %12)
  call void @llvm.lifetime.start.p0(i64 4, ptr nonnull %6) #13
  %13 = load i32, ptr @ett_h245_VideoCapability, align 4
  %14 = call i32 @dissect_per_choice(ptr noundef %0, i32 noundef %1, ptr noundef %2, ptr noundef %3, i32 noundef %4, i32 noundef %13, ptr noundef nonnull @VideoCapability_choice, ptr noundef nonnull %6)
  %15 = load i32, ptr %6, align 4
  %16 = call ptr @val_to_str_const(i32 noundef %15, ptr noundef nonnull @h245_VideoCapability_vals, ptr noundef nonnull @.str.2977)
  store ptr %16, ptr @codec_type, align 8
  %17 = load ptr, ptr %7, align 8
  %18 = getelementptr inbounds nuw i8, ptr %17, i64 432
  %19 = load i32, ptr %18, align 8
  %20 = add i32 %19, -3
  store i32 %20, ptr %18, align 8
  %21 = load ptr, ptr %7, align 8
  call void @decrement_dissection_depth(ptr noundef %21)
  call void @llvm.lifetime.end.p0(i64 4, ptr nonnull %6) #13
  ret i32 %14
}